ccopy_reg
_reconstructor
p0
(cdropbox.client
DropboxOAuth2FlowNoRedirect
p1
c__builtin__
object
p2
Ntp3
Rp4
(dp5
S'consumer_secret'
p6
S'0903whnau7p2zde'
p7
sS'locale'
p8
NsS'consumer_key'
p9
S'p2iu4n7f9yegl3u'
p10
sS'rest_client'
p11
cdropbox.rest
RESTClient
p12
sb.